target datalayout = "e-m:e-p270:32:32-p271:32:32-p272:64:64-i64:64-i128:128-f80:128-n8:16:32:64-S128"
target triple = "x86_64-pc-linux-gnu"

; Function Attrs: inlinehint nounwind uwtable
define internal i32 @pg_leftmost_one_pos64(i64 noundef %0) #7 {
  %2 = alloca i64, align 8
  store i64 %0, ptr %2, align 8
  %3 = load i64, ptr %2, align 8
  %4 = call i64 @llvm.ctlz.i64(i64 %3, i1 true)
  %5 = trunc i64 %4 to i32
  %6 = sub i32 63, %5
  ret i32 %6
}

; Function Attrs: inlinehint nounwind uwtable
define internal i64 @pg_ceil_log2_64(i64 noundef %0) #7 {
  %2 = alloca i64, align 8
  %3 = alloca i64, align 8
  store i64 %0, ptr %3, align 8
  %4 = load i64, ptr %3, align 8
  %5 = icmp ult i64 %4, 2
  br i1 %5, label %6, label %7

6:                                                ; preds = %1
  store i64 0, ptr %2, align 8
  br label %13

7:                                                ; preds = %1
  %8 = load i64, ptr %3, align 8
  %9 = sub i64 %8, 1
  %10 = call i32 @pg_leftmost_one_pos64(i64 noundef %9)
  %11 = add i32 %10, 1
  %12 = sext i32 %11 to i64
  store i64 %12, ptr %2, align 8
  br label %13

13:                                               ; preds = %7, %6
  %14 = load i64, ptr %2, align 8
  ret i64 %14
}

; Function Attrs: nounwind uwtable
define dso_local i32 @my_log2(i64 noundef %0) #0 {
  %2 = alloca i64, align 8
  store i64 %0, ptr %2, align 8
  %3 = load i64, ptr %2, align 8
  %4 = icmp sgt i64 %3, 4611686018427387903
  br i1 %4, label %5, label %6

5:                                                ; preds = %1
  store i64 4611686018427387903, ptr %2, align 8
  br label %6

6:                                                ; preds = %5, %1
  %7 = load i64, ptr %2, align 8
  %8 = call i64 @pg_ceil_log2_64(i64 noundef %7)
  %9 = trunc i64 %8 to i32
  ret i32 %9
}