; Function Attrs: mustprogress nofree norecurse nosync nounwind willreturn memory(none) uwtable
define dso_local range(i32 0, 65) i32 @my_log2(i64 noundef %0) local_unnamed_addr #8 {
  %spec.store.select = tail call i64 @llvm.smin.i64(i64 %0, i64 4611686018427387903)
  %2 = icmp ult i64 %spec.store.select, 2
  %3 = add i64 %spec.store.select, -1
  %4 = tail call range(i64 0, 65) i64 @llvm.ctlz.i64(i64 range(i64 1, -1) %3, i1 true)
  %5 = trunc nuw nsw i64 %4 to i32
  %6 = sub nuw nsw i32 64, %5
  %7 = select i1 %2, i32 0, i32 %6
  ret i32 %7
}